target datalayout = "e-m:e-p270:32:32-p271:32:32-p272:64:64-i64:64-i128:128-f80:128-n8:16:32:64-S128"
target triple = "x86_64-pc-linux-gnu"

%struct.PJconsts = type { ptr, ptr, ptr, ptr, ptr, ptr, ptr, ptr, ptr, ptr, ptr, ptr, i32, ptr, ptr, ptr, ptr, ptr, ptr, ptr, ptr, double, double, double, double, double, double, double, double, double, double, double, double, double, double, double, double, double, double, double, double, double, double, i32, i32, i32, i32, i32, i32, i32, i32, i32, i32, i32, ptr, ptr, ptr, ptr, ptr, ptr, double, double, double, double, double, double, double, double, double, double, double, i32, [7 x double], i32, ptr, ptr, double, double, i32, [4 x i8], %"class.std::shared_ptr", i8, double, i8, %"class.std::__cxx11::basic_string", %"class.std::__cxx11::basic_string", %"class.std::__cxx11::basic_string", i8, %"class.std::vector", i32, %"class.std::vector.3", i32, i8, i8, i8, ptr }
%"class.std::shared_ptr" = type { %"class.std::__shared_ptr" }
%"class.std::__shared_ptr" = type { ptr, %"class.std::__shared_count" }
%"class.std::__shared_count" = type { ptr }
%"class.std::__cxx11::basic_string" = type { %"struct.std::__cxx11::basic_string<char>::_Alloc_hider", i64, %union.anon }
%"struct.std::__cxx11::basic_string<char>::_Alloc_hider" = type { ptr }
%union.anon = type { i64, [8 x i8] }
%"class.std::vector" = type { %"struct.std::_Vector_base" }
%"struct.std::_Vector_base" = type { %"struct.std::_Vector_base<osgeo::proj::operation::GridDescription, std::allocator<osgeo::proj::operation::GridDescription>>::_Vector_impl" }
%"struct.std::_Vector_base<osgeo::proj::operation::GridDescription, std::allocator<osgeo::proj::operation::GridDescription>>::_Vector_impl" = type { %"struct.std::_Vector_base<osgeo::proj::operation::GridDescription, std::allocator<osgeo::proj::operation::GridDescription>>::_Vector_impl_data" }
%"struct.std::_Vector_base<osgeo::proj::operation::GridDescription, std::allocator<osgeo::proj::operation::GridDescription>>::_Vector_impl_data" = type { ptr, ptr, ptr }
%"class.std::vector.3" = type { %"struct.std::_Vector_base.4" }
%"struct.std::_Vector_base.4" = type { %"struct.std::_Vector_base<PJCoordOperation, std::allocator<PJCoordOperation>>::_Vector_impl" }
%"struct.std::_Vector_base<PJCoordOperation, std::allocator<PJCoordOperation>>::_Vector_impl" = type { %"struct.std::_Vector_base<PJCoordOperation, std::allocator<PJCoordOperation>>::_Vector_impl_data" }
%"struct.std::_Vector_base<PJCoordOperation, std::allocator<PJCoordOperation>>::_Vector_impl_data" = type { ptr, ptr, ptr }
%"struct.(anonymous namespace)::pj_somerc" = type { double, double, double, double, double, double }

; Function Attrs: mustprogress uwtable
define hidden noundef ptr @_Z35pj_projection_specific_setup_somercP8PJconsts(ptr noundef %0) #0 {
  %2 = alloca ptr, align 8
  %3 = alloca ptr, align 8
  %4 = alloca double, align 8
  %5 = alloca double, align 8
  %6 = alloca double, align 8
  %7 = alloca ptr, align 8
  %8 = alloca i32, align 4
  store ptr %0, ptr %3, align 8, !tbaa !3
  call void @llvm.lifetime.start.p0(i64 8, ptr %4) #7
  call void @llvm.lifetime.start.p0(i64 8, ptr %5) #7
  call void @llvm.lifetime.start.p0(i64 8, ptr %6) #7
  call void @llvm.lifetime.start.p0(i64 8, ptr %7) #7
  %9 = call noalias ptr @calloc(i64 noundef 1, i64 noundef 48) #8
  store ptr %9, ptr %7, align 8, !tbaa !41
  %10 = load ptr, ptr %7, align 8, !tbaa !41
  %11 = icmp eq ptr null, %10
  br i1 %11, label %12, label %15

12:                                               ; preds = %1
  %13 = load ptr, ptr %3, align 8, !tbaa !3
  %14 = call noundef ptr @_Z21pj_default_destructorP8PJconstsi(ptr noundef %13, i32 noundef 4096)
  store ptr %14, ptr %2, align 8
  store i32 1, ptr %8, align 4
  br label %121

15:                                               ; preds = %1
  %16 = load ptr, ptr %7, align 8, !tbaa !41
  %17 = load ptr, ptr %3, align 8, !tbaa !3
  %18 = getelementptr inbounds nuw %struct.PJconsts, ptr %17, i32 0, i32 11
  store ptr %16, ptr %18, align 8, !tbaa !43
  %19 = load ptr, ptr %3, align 8, !tbaa !3
  %20 = getelementptr inbounds nuw %struct.PJconsts, ptr %19, i32 0, i32 26
  %21 = load double, ptr %20, align 8, !tbaa !44
  %22 = fmul double 5.000000e-01, %21
  %23 = load ptr, ptr %7, align 8, !tbaa !41
  %24 = getelementptr inbounds nuw %"struct.(anonymous namespace)::pj_somerc", ptr %23, i32 0, i32 2
  store double %22, ptr %24, align 8, !tbaa !45
  %25 = load ptr, ptr %3, align 8, !tbaa !3
  %26 = getelementptr inbounds nuw %struct.PJconsts, ptr %25, i32 0, i32 61
  %27 = load double, ptr %26, align 8, !tbaa !47
  %28 = call double @cos(double noundef %27) #7, !tbaa !48
  store double %28, ptr %4, align 8, !tbaa !49
  %29 = load double, ptr %4, align 8, !tbaa !49
  %30 = load double, ptr %4, align 8, !tbaa !49
  %31 = fmul double %30, %29
  store double %31, ptr %4, align 8, !tbaa !49
  %32 = load ptr, ptr %3, align 8, !tbaa !3
  %33 = getelementptr inbounds nuw %struct.PJconsts, ptr %32, i32 0, i32 27
  %34 = load double, ptr %33, align 8, !tbaa !50
  %35 = load double, ptr %4, align 8, !tbaa !49
  %36 = fmul double %34, %35
  %37 = load double, ptr %4, align 8, !tbaa !49
  %38 = fmul double %36, %37
  %39 = load ptr, ptr %3, align 8, !tbaa !3
  %40 = getelementptr inbounds nuw %struct.PJconsts, ptr %39, i32 0, i32 33
  %41 = load double, ptr %40, align 8, !tbaa !51
  %42 = call double @llvm.fmuladd.f64(double %38, double %41, double 1.000000e+00)
  %43 = call double @sqrt(double noundef %42) #7, !tbaa !48
  %44 = load ptr, ptr %7, align 8, !tbaa !41
  %45 = getelementptr inbounds nuw %"struct.(anonymous namespace)::pj_somerc", ptr %44, i32 0, i32 1
  store double %43, ptr %45, align 8, !tbaa !52
  %46 = load ptr, ptr %3, align 8, !tbaa !3
  %47 = getelementptr inbounds nuw %struct.PJconsts, ptr %46, i32 0, i32 61
  %48 = load double, ptr %47, align 8, !tbaa !47
  %49 = call double @sin(double noundef %48) #7, !tbaa !48
  store double %49, ptr %6, align 8, !tbaa !49
  %50 = load double, ptr %6, align 8, !tbaa !49
  %51 = load ptr, ptr %7, align 8, !tbaa !41
  %52 = getelementptr inbounds nuw %"struct.(anonymous namespace)::pj_somerc", ptr %51, i32 0, i32 1
  %53 = load double, ptr %52, align 8, !tbaa !52
  %54 = fdiv double %50, %53
  %55 = load ptr, ptr %7, align 8, !tbaa !41
  %56 = getelementptr inbounds nuw %"struct.(anonymous namespace)::pj_somerc", ptr %55, i32 0, i32 5
  store double %54, ptr %56, align 8, !tbaa !53
  %57 = load ptr, ptr %3, align 8, !tbaa !3
  %58 = getelementptr inbounds nuw %struct.PJconsts, ptr %57, i32 0, i32 0
  %59 = load ptr, ptr %58, align 8, !tbaa !54
  %60 = load ptr, ptr %7, align 8, !tbaa !41
  %61 = getelementptr inbounds nuw %"struct.(anonymous namespace)::pj_somerc", ptr %60, i32 0, i32 5
  %62 = load double, ptr %61, align 8, !tbaa !53
  %63 = call noundef double @_Z5aasinP6pj_ctxd(ptr noundef %59, double noundef %62)
  store double %63, ptr %5, align 8, !tbaa !49
  %64 = load double, ptr %5, align 8, !tbaa !49
  %65 = call double @cos(double noundef %64) #7, !tbaa !48
  %66 = load ptr, ptr %7, align 8, !tbaa !41
  %67 = getelementptr inbounds nuw %"struct.(anonymous namespace)::pj_somerc", ptr %66, i32 0, i32 4
  store double %65, ptr %67, align 8, !tbaa !55
  %68 = load ptr, ptr %3, align 8, !tbaa !3
  %69 = getelementptr inbounds nuw %struct.PJconsts, ptr %68, i32 0, i32 26
  %70 = load double, ptr %69, align 8, !tbaa !44
  %71 = load double, ptr %6, align 8, !tbaa !49
  %72 = fmul double %71, %70
  store double %72, ptr %6, align 8, !tbaa !49
  %73 = load double, ptr %5, align 8, !tbaa !49
  %74 = call double @llvm.fmuladd.f64(double 5.000000e-01, double %73, double 0x3FE921FB54442D18)
  %75 = call double @tan(double noundef %74) #7, !tbaa !48
  %76 = call double @log(double noundef %75) #7, !tbaa !48
  %77 = load ptr, ptr %7, align 8, !tbaa !41
  %78 = getelementptr inbounds nuw %"struct.(anonymous namespace)::pj_somerc", ptr %77, i32 0, i32 1
  %79 = load double, ptr %78, align 8, !tbaa !52
  %80 = load ptr, ptr %3, align 8, !tbaa !3
  %81 = getelementptr inbounds nuw %struct.PJconsts, ptr %80, i32 0, i32 61
  %82 = load double, ptr %81, align 8, !tbaa !47
  %83 = call double @llvm.fmuladd.f64(double 5.000000e-01, double %82, double 0x3FE921FB54442D18)
  %84 = call double @tan(double noundef %83) #7, !tbaa !48
  %85 = call double @log(double noundef %84) #7, !tbaa !48
  %86 = load ptr, ptr %7, align 8, !tbaa !41
  %87 = getelementptr inbounds nuw %"struct.(anonymous namespace)::pj_somerc", ptr %86, i32 0, i32 2
  %88 = load double, ptr %87, align 8, !tbaa !45
  %89 = load double, ptr %6, align 8, !tbaa !49
  %90 = fadd double 1.000000e+00, %89
  %91 = load double, ptr %6, align 8, !tbaa !49
  %92 = fsub double 1.000000e+00, %91
  %93 = fdiv double %90, %92
  %94 = call double @log(double noundef %93) #7, !tbaa !48
  %95 = fneg double %88
  %96 = call double @llvm.fmuladd.f64(double %95, double %94, double %85)
  %97 = fneg double %79
  %98 = call double @llvm.fmuladd.f64(double %97, double %96, double %76)
  %99 = load ptr, ptr %7, align 8, !tbaa !41
  %100 = getelementptr inbounds nuw %"struct.(anonymous namespace)::pj_somerc", ptr %99, i32 0, i32 0
  store double %98, ptr %100, align 8, !tbaa !56
  %101 = load ptr, ptr %3, align 8, !tbaa !3
  %102 = getelementptr inbounds nuw %struct.PJconsts, ptr %101, i32 0, i32 66
  %103 = load double, ptr %102, align 8, !tbaa !57
  %104 = load ptr, ptr %3, align 8, !tbaa !3
  %105 = getelementptr inbounds nuw %struct.PJconsts, ptr %104, i32 0, i32 32
  %106 = load double, ptr %105, align 8, !tbaa !58
  %107 = call double @sqrt(double noundef %106) #7, !tbaa !48
  %108 = fmul double %103, %107
  %109 = load double, ptr %6, align 8, !tbaa !49
  %110 = load double, ptr %6, align 8, !tbaa !49
  %111 = fneg double %109
  %112 = call double @llvm.fmuladd.f64(double %111, double %110, double 1.000000e+00)
  %113 = fdiv double %108, %112
  %114 = load ptr, ptr %7, align 8, !tbaa !41
  %115 = getelementptr inbounds nuw %"struct.(anonymous namespace)::pj_somerc", ptr %114, i32 0, i32 3
  store double %113, ptr %115, align 8, !tbaa !59
  %116 = load ptr, ptr %3, align 8, !tbaa !3
  %117 = getelementptr inbounds nuw %struct.PJconsts, ptr %116, i32 0, i32 14
  store ptr @_ZL16somerc_e_inverse5PJ_XYP8PJconsts, ptr %117, align 8, !tbaa !60
  %118 = load ptr, ptr %3, align 8, !tbaa !3
  %119 = getelementptr inbounds nuw %struct.PJconsts, ptr %118, i32 0, i32 13
  store ptr @_ZL16somerc_e_forward5PJ_LPP8PJconsts, ptr %119, align 8, !tbaa !61
  %120 = load ptr, ptr %3, align 8, !tbaa !3
  store ptr %120, ptr %2, align 8
  store i32 1, ptr %8, align 4
  br label %121

121:                                              ; preds = %15, %12
  call void @llvm.lifetime.end.p0(i64 8, ptr %7) #7
  call void @llvm.lifetime.end.p0(i64 8, ptr %6) #7
  call void @llvm.lifetime.end.p0(i64 8, ptr %5) #7
  call void @llvm.lifetime.end.p0(i64 8, ptr %4) #7
  %122 = load ptr, ptr %2, align 8
  ret ptr %122
}