; Function Attrs: mustprogress uwtable
define hidden noundef ptr @_Z35pj_projection_specific_setup_somercP8PJconsts(ptr noundef %0) local_unnamed_addr #0 {
  %2 = tail call noalias dereferenceable_or_null(48) ptr @calloc(i64 noundef 1, i64 noundef 48) #5
  %3 = icmp eq ptr %2, null
  br i1 %3, label %4, label %6

4:                                                ; preds = %1
  %5 = tail call noundef ptr @_Z21pj_default_destructorP8PJconstsi(ptr noundef %0, i32 noundef 4096)
  br label %63

6:                                                ; preds = %1
  %7 = getelementptr inbounds nuw i8, ptr %0, i64 88
  store ptr %2, ptr %7, align 8, !tbaa !40
  %8 = getelementptr inbounds nuw i8, ptr %0, i64 208
  %9 = load double, ptr %8, align 8, !tbaa !41
  %10 = fmul double %9, 5.000000e-01
  %11 = getelementptr inbounds nuw i8, ptr %2, i64 16
  store double %10, ptr %11, align 8, !tbaa !42
  %12 = getelementptr inbounds nuw i8, ptr %0, i64 448
  %13 = load double, ptr %12, align 8, !tbaa !44
  %14 = tail call double @cos(double noundef %13) #6, !tbaa !45
  %15 = fmul double %14, %14
  %16 = getelementptr inbounds nuw i8, ptr %0, i64 216
  %17 = load double, ptr %16, align 8, !tbaa !46
  %18 = fmul double %17, %15
  %19 = fmul double %15, %18
  %20 = getelementptr inbounds nuw i8, ptr %0, i64 264
  %21 = load double, ptr %20, align 8, !tbaa !47
  %22 = tail call double @llvm.fmuladd.f64(double %19, double %21, double 1.000000e+00)
  %23 = tail call double @sqrt(double noundef %22) #6, !tbaa !45
  %24 = getelementptr inbounds nuw i8, ptr %2, i64 8
  store double %23, ptr %24, align 8, !tbaa !48
  %25 = tail call double @sin(double noundef %13) #6, !tbaa !45
  %26 = fdiv double %25, %23
  %27 = getelementptr inbounds nuw i8, ptr %2, i64 40
  store double %26, ptr %27, align 8, !tbaa !49
  %28 = load ptr, ptr %0, align 8, !tbaa !50
  %29 = tail call noundef double @_Z5aasinP6pj_ctxd(ptr noundef %28, double noundef %26)
  %30 = tail call double @cos(double noundef %29) #6, !tbaa !45
  %31 = getelementptr inbounds nuw i8, ptr %2, i64 32
  store double %30, ptr %31, align 8, !tbaa !51
  %32 = load double, ptr %8, align 8, !tbaa !41
  %33 = fmul double %25, %32
  %34 = tail call double @llvm.fmuladd.f64(double %29, double 5.000000e-01, double 0x3FE921FB54442D18)
  %35 = tail call double @tan(double noundef %34) #6, !tbaa !45
  %36 = tail call double @log(double noundef %35) #6, !tbaa !45
  %37 = load double, ptr %24, align 8, !tbaa !48
  %38 = load double, ptr %12, align 8, !tbaa !44
  %39 = tail call double @llvm.fmuladd.f64(double %38, double 5.000000e-01, double 0x3FE921FB54442D18)
  %40 = tail call double @tan(double noundef %39) #6, !tbaa !45
  %41 = tail call double @log(double noundef %40) #6, !tbaa !45
  %42 = load double, ptr %11, align 8, !tbaa !42
  %43 = fadd double %33, 1.000000e+00
  %44 = fsub double 1.000000e+00, %33
  %45 = fdiv double %43, %44
  %46 = tail call double @log(double noundef %45) #6, !tbaa !45
  %47 = fneg double %42
  %48 = tail call double @llvm.fmuladd.f64(double %47, double %46, double %41)
  %49 = fneg double %37
  %50 = tail call double @llvm.fmuladd.f64(double %49, double %48, double %36)
  store double %50, ptr %2, align 8, !tbaa !52
  %51 = getelementptr inbounds nuw i8, ptr %0, i64 488
  %52 = load double, ptr %51, align 8, !tbaa !53
  %53 = getelementptr inbounds nuw i8, ptr %0, i64 256
  %54 = load double, ptr %53, align 8, !tbaa !54
  %55 = tail call double @sqrt(double noundef %54) #6, !tbaa !45
  %56 = fmul double %52, %55
  %57 = fneg double %33
  %58 = tail call double @llvm.fmuladd.f64(double %57, double %33, double 1.000000e+00)
  %59 = fdiv double %56, %58
  %60 = getelementptr inbounds nuw i8, ptr %2, i64 24
  store double %59, ptr %60, align 8, !tbaa !55
  %61 = getelementptr inbounds nuw i8, ptr %0, i64 112
  store ptr @_ZL16somerc_e_inverse5PJ_XYP8PJconsts, ptr %61, align 8, !tbaa !56
  %62 = getelementptr inbounds nuw i8, ptr %0, i64 104
  store ptr @_ZL16somerc_e_forward5PJ_LPP8PJconsts, ptr %62, align 8, !tbaa !57
  br label %63

63:                                               ; preds = %6, %4
  %.0 = phi ptr [ %5, %4 ], [ %0, %6 ]
  ret ptr %.0
}